; Function Attrs: mustprogress uwtable
define void @_ZN7rocksdb7blob_db10BlobDBImpl19ProcessFlushJobInfoERKNS_12FlushJobInfoE(ptr noundef nonnull align 8 dereferenceable(2448) %this, ptr nocapture noundef nonnull readonly align 8 dereferenceable(848) %info) local_unnamed_addr #3 align 2 personality ptr @__gxx_personality_v0 {
entry:
  %mutex_ = getelementptr inbounds i8, ptr %this, i64 1904
  tail call void @_ZN7rocksdb4port7RWMutex9WriteLockEv(ptr noundef nonnull align 8 dereferenceable(56) %mutex_)
  %oldest_blob_file_number = getelementptr inbounds i8, ptr %info, i64 80
  %0 = load i64, ptr %oldest_blob_file_number, align 8
  %cmp.not = icmp eq i64 %0, 0
  br i1 %cmp.not, label %if.end, label %if.then

if.then:                                          ; preds = %entry
  %file_number = getelementptr inbounds i8, ptr %info, i64 72
  %1 = load i64, ptr %file_number, align 8
  invoke void @_ZN7rocksdb7blob_db10BlobDBImpl17LinkSstToBlobFileEmm(ptr noundef nonnull align 8 dereferenceable(2448) %this, i64 noundef %1, i64 noundef %0)
          to label %if.end unwind label %lpad

lpad:                                             ; preds = %if.end, %if.then
  %2 = landingpad { ptr, i32 }
          cleanup
  invoke void @_ZN7rocksdb4port7RWMutex11WriteUnlockEv(ptr noundef nonnull align 8 dereferenceable(56) %mutex_)
          to label %_ZN7rocksdb9WriteLockD2Ev.exit unwind label %terminate.lpad.i

terminate.lpad.i:                                 ; preds = %lpad
  %3 = landingpad { ptr, i32 }
          catch ptr null
  %4 = extractvalue { ptr, i32 } %3, 0
  tail call void @__clang_call_terminate(ptr %4) #25
  unreachable

_ZN7rocksdb9WriteLockD2Ev.exit:                   ; preds = %lpad
  resume { ptr, i32 } %2

if.end:                                           ; preds = %if.then, %entry
  %largest_seqno = getelementptr inbounds i8, ptr %info, i64 112
  %5 = load i64, ptr %largest_seqno, align 8
  %flush_sequence_ = getelementptr inbounds i8, ptr %this, i64 2104
  store i64 %5, ptr %flush_sequence_, align 8
  invoke void @_ZN7rocksdb7blob_db10BlobDBImpl33MarkUnreferencedBlobFilesObsoleteEv(ptr noundef nonnull align 8 dereferenceable(2448) %this)
          to label %invoke.cont3 unwind label %lpad

invoke.cont3:                                     ; preds = %if.end
  invoke void @_ZN7rocksdb4port7RWMutex11WriteUnlockEv(ptr noundef nonnull align 8 dereferenceable(56) %mutex_)
          to label %_ZN7rocksdb9WriteLockD2Ev.exit5 unwind label %terminate.lpad.i4

terminate.lpad.i4:                                ; preds = %invoke.cont3
  %6 = landingpad { ptr, i32 }
          catch ptr null
  %7 = extractvalue { ptr, i32 } %6, 0
  tail call void @__clang_call_terminate(ptr %7) #25
  unreachable

_ZN7rocksdb9WriteLockD2Ev.exit5:                  ; preds = %invoke.cont3
  ret void
}